; Function Attrs: mustprogress nofree norecurse nosync nounwind willreturn memory(argmem: readwrite) uwtable
define internal void @ff_tx_fft4_ns_int32_c(ptr readnone captures(none) %0, ptr noundef writeonly captures(none) initializes((0, 32)) %1, ptr noundef readonly captures(none) %2, i64 %3) #8 {
  %5 = load i32, ptr %2, align 4, !tbaa !48
  %6 = getelementptr inbounds nuw i8, ptr %2, i64 8
  %7 = load i32, ptr %6, align 4, !tbaa !48
  %8 = sub i32 %5, %7
  %9 = add i32 %7, %5
  %10 = getelementptr inbounds nuw i8, ptr %2, i64 24
  %11 = load i32, ptr %10, align 4, !tbaa !48
  %12 = getelementptr inbounds nuw i8, ptr %2, i64 16
  %13 = load i32, ptr %12, align 4, !tbaa !48
  %14 = sub i32 %11, %13
  %15 = add i32 %13, %11
  %16 = sub i32 %9, %15
  %17 = getelementptr inbounds nuw i8, ptr %1, i64 16
  store i32 %16, ptr %17, align 4, !tbaa !48
  %18 = add i32 %15, %9
  store i32 %18, ptr %1, align 4, !tbaa !48
  %19 = getelementptr inbounds nuw i8, ptr %2, i64 4
  %20 = load i32, ptr %19, align 4, !tbaa !50
  %21 = getelementptr inbounds nuw i8, ptr %2, i64 12
  %22 = load i32, ptr %21, align 4, !tbaa !50
  %23 = sub i32 %20, %22
  %24 = add i32 %22, %20
  %25 = getelementptr inbounds nuw i8, ptr %2, i64 20
  %26 = load i32, ptr %25, align 4, !tbaa !50
  %27 = getelementptr inbounds nuw i8, ptr %2, i64 28
  %28 = load i32, ptr %27, align 4, !tbaa !50
  %29 = sub i32 %26, %28
  %30 = add i32 %28, %26
  %31 = sub i32 %23, %14
  %32 = getelementptr inbounds nuw i8, ptr %1, i64 24
  %33 = getelementptr inbounds nuw i8, ptr %1, i64 28
  store i32 %31, ptr %33, align 4, !tbaa !50
  %34 = add i32 %23, %14
  %35 = getelementptr inbounds nuw i8, ptr %1, i64 8
  %36 = getelementptr inbounds nuw i8, ptr %1, i64 12
  store i32 %34, ptr %36, align 4, !tbaa !50
  %37 = sub i32 %8, %29
  store i32 %37, ptr %32, align 4, !tbaa !48
  %38 = add i32 %29, %8
  store i32 %38, ptr %35, align 4, !tbaa !48
  %39 = sub i32 %24, %30
  %40 = getelementptr inbounds nuw i8, ptr %1, i64 20
  store i32 %39, ptr %40, align 4, !tbaa !50
  %41 = add i32 %30, %24
  %42 = getelementptr inbounds nuw i8, ptr %1, i64 4
  store i32 %41, ptr %42, align 4, !tbaa !50
  ret void
}